; Function Attrs: mustprogress nofree norecurse nosync nounwind willreturn memory(argmem: readwrite) uwtable
define void @_ZN32pxrInternal_v0_24__pxrReserved__7GfPlane3SetERKNS_7GfVec3dES3_S3_(ptr nocapture noundef nonnull writeonly align 8 dereferenceable(32) %0, ptr nocapture noundef nonnull readonly align 8 dereferenceable(24) %1, ptr nocapture noundef nonnull readonly align 8 dereferenceable(24) %2, ptr nocapture noundef nonnull readonly align 8 dereferenceable(24) %3) local_unnamed_addr #1 align 2 {
  %.sroa.0.0.copyload.i = load double, ptr %2, align 8, !noalias !4
  %.sroa.4.0..sroa_idx.i = getelementptr inbounds i8, ptr %2, i64 8
  %.sroa.4.0.copyload.i = load double, ptr %.sroa.4.0..sroa_idx.i, align 8, !noalias !4
  %.sroa.6.0..sroa_idx.i = getelementptr inbounds i8, ptr %2, i64 16
  %.sroa.6.0.copyload.i = load double, ptr %.sroa.6.0..sroa_idx.i, align 8, !noalias !4
  %5 = load double, ptr %1, align 8, !noalias !7
  %6 = fsub double %.sroa.0.0.copyload.i, %5
  %7 = getelementptr inbounds i8, ptr %1, i64 8
  %8 = load double, ptr %7, align 8, !noalias !7
  %9 = fsub double %.sroa.4.0.copyload.i, %8
  %10 = getelementptr inbounds i8, ptr %1, i64 16
  %11 = load double, ptr %10, align 8, !noalias !7
  %12 = fsub double %.sroa.6.0.copyload.i, %11
  %.sroa.0.0.copyload.i6 = load double, ptr %3, align 8, !noalias !8
  %.sroa.4.0..sroa_idx.i7 = getelementptr inbounds i8, ptr %3, i64 8
  %.sroa.4.0.copyload.i8 = load double, ptr %.sroa.4.0..sroa_idx.i7, align 8, !noalias !8
  %.sroa.6.0..sroa_idx.i9 = getelementptr inbounds i8, ptr %3, i64 16
  %.sroa.6.0.copyload.i10 = load double, ptr %.sroa.6.0..sroa_idx.i9, align 8, !noalias !8
  %13 = fsub double %.sroa.0.0.copyload.i6, %5
  %14 = fsub double %.sroa.4.0.copyload.i8, %8
  %15 = fsub double %.sroa.6.0.copyload.i10, %11
  %16 = fneg double %14
  %17 = fmul double %12, %16
  %18 = tail call double @llvm.fmuladd.f64(double %9, double %15, double %17)
  %19 = fneg double %15
  %20 = fmul double %6, %19
  %21 = tail call double @llvm.fmuladd.f64(double %12, double %13, double %20)
  %22 = fneg double %13
  %23 = fmul double %9, %22
  %24 = tail call double @llvm.fmuladd.f64(double %6, double %14, double %23)
  %25 = fmul double %21, %21
  %26 = tail call double @llvm.fmuladd.f64(double %18, double %18, double %25)
  %27 = tail call noundef double @llvm.fmuladd.f64(double %24, double %24, double %26)
  %sqrt.i.i.i = tail call noundef double @llvm.sqrt.f64(double %27)
  %28 = fcmp ogt double %sqrt.i.i.i, 1.000000e-10
  %29 = select i1 %28, double %sqrt.i.i.i, double 1.000000e-10
  %30 = fdiv double 1.000000e+00, %29
  %31 = fmul double %18, %30
  %32 = fmul double %21, %30
  %33 = fmul double %24, %30
  store double %31, ptr %0, align 8
  %.sroa.419.0..sroa_idx = getelementptr inbounds i8, ptr %0, i64 8
  store double %32, ptr %.sroa.419.0..sroa_idx, align 8
  %.sroa.7.0..sroa_idx = getelementptr inbounds i8, ptr %0, i64 16
  store double %33, ptr %.sroa.7.0..sroa_idx, align 8
  %34 = load double, ptr %1, align 8
  %35 = load double, ptr %7, align 8
  %36 = fmul double %35, %32
  %37 = tail call double @llvm.fmuladd.f64(double %31, double %34, double %36)
  %38 = load double, ptr %10, align 8
  %39 = tail call noundef double @llvm.fmuladd.f64(double %33, double %38, double %37)
  %40 = getelementptr inbounds nuw i8, ptr %0, i64 24
  store double %39, ptr %40, align 8
  ret void
}